target datalayout = "e-m:e-p270:32:32-p271:32:32-p272:64:64-i64:64-i128:128-f80:128-n8:16:32:64-S128"
target triple = "x86_64-pc-linux-gnu"

%"class.cv::RNG_MT19937" = type { [624 x i32], i32 }

; Function Attrs: mustprogress nounwind uwtable
define void @_ZN2cv11RNG_MT199374seedEj(ptr noundef nonnull align 4 dereferenceable(2500) %0, i32 noundef %1) #4 align 2 {
  %3 = alloca ptr, align 8
  %4 = alloca i32, align 4
  store ptr %0, ptr %3, align 8
  store i32 %1, ptr %4, align 4
  %5 = load ptr, ptr %3, align 8
  %6 = load i32, ptr %4, align 4
  %7 = getelementptr inbounds %"class.cv::RNG_MT19937", ptr %5, i32 0, i32 0
  %8 = getelementptr inbounds [624 x i32], ptr %7, i64 0, i64 0
  store i32 %6, ptr %8, align 4
  %9 = getelementptr inbounds %"class.cv::RNG_MT19937", ptr %5, i32 0, i32 1
  store i32 1, ptr %9, align 4
  br label %10

10:                                               ; preds = %40, %2
  %11 = getelementptr inbounds %"class.cv::RNG_MT19937", ptr %5, i32 0, i32 1
  %12 = load i32, ptr %11, align 4
  %13 = icmp slt i32 %12, 624
  br i1 %13, label %14, label %44

14:                                               ; preds = %10
  %15 = getelementptr inbounds %"class.cv::RNG_MT19937", ptr %5, i32 0, i32 0
  %16 = getelementptr inbounds %"class.cv::RNG_MT19937", ptr %5, i32 0, i32 1
  %17 = load i32, ptr %16, align 4
  %18 = sub nsw i32 %17, 1
  %19 = sext i32 %18 to i64
  %20 = getelementptr inbounds [624 x i32], ptr %15, i64 0, i64 %19
  %21 = load i32, ptr %20, align 4
  %22 = getelementptr inbounds %"class.cv::RNG_MT19937", ptr %5, i32 0, i32 0
  %23 = getelementptr inbounds %"class.cv::RNG_MT19937", ptr %5, i32 0, i32 1
  %24 = load i32, ptr %23, align 4
  %25 = sub nsw i32 %24, 1
  %26 = sext i32 %25 to i64
  %27 = getelementptr inbounds [624 x i32], ptr %22, i64 0, i64 %26
  %28 = load i32, ptr %27, align 4
  %29 = lshr i32 %28, 30
  %30 = xor i32 %21, %29
  %31 = mul i32 1812433253, %30
  %32 = getelementptr inbounds %"class.cv::RNG_MT19937", ptr %5, i32 0, i32 1
  %33 = load i32, ptr %32, align 4
  %34 = add i32 %31, %33
  %35 = getelementptr inbounds %"class.cv::RNG_MT19937", ptr %5, i32 0, i32 0
  %36 = getelementptr inbounds %"class.cv::RNG_MT19937", ptr %5, i32 0, i32 1
  %37 = load i32, ptr %36, align 4
  %38 = sext i32 %37 to i64
  %39 = getelementptr inbounds [624 x i32], ptr %35, i64 0, i64 %38
  store i32 %34, ptr %39, align 4
  br label %40

40:                                               ; preds = %14
  %41 = getelementptr inbounds %"class.cv::RNG_MT19937", ptr %5, i32 0, i32 1
  %42 = load i32, ptr %41, align 4
  %43 = add nsw i32 %42, 1
  store i32 %43, ptr %41, align 4
  br label %10, !llvm.loop !58

44:                                               ; preds = %10
  ret void
}