; Function Attrs: mustprogress nofree norecurse nosync nounwind memory(argmem: readwrite) uwtable
define void @_ZN2cv11RNG_MT199374seedEj(ptr nocapture noundef nonnull align 4 dereferenceable(2500) %0, i32 noundef %1) local_unnamed_addr #7 align 2 {
  store i32 %1, ptr %0, align 4
  %3 = getelementptr inbounds i8, ptr %0, i64 2496
  store i32 1, ptr %3, align 4
  br label %4

4:                                                ; preds = %2, %4
  %storemerge1 = phi i32 [ 1, %2 ], [ %16, %4 ]
  %5 = add nsw i32 %storemerge1, -1
  %6 = sext i32 %5 to i64
  %7 = getelementptr inbounds [624 x i32], ptr %0, i64 0, i64 %6
  %8 = load i32, ptr %7, align 4
  %9 = lshr i32 %8, 30
  %10 = xor i32 %9, %8
  %11 = mul i32 %10, 1812433253
  %12 = add i32 %11, %storemerge1
  %13 = sext i32 %storemerge1 to i64
  %14 = getelementptr inbounds [624 x i32], ptr %0, i64 0, i64 %13
  store i32 %12, ptr %14, align 4
  %15 = load i32, ptr %3, align 4
  %16 = add nsw i32 %15, 1
  store i32 %16, ptr %3, align 4
  %17 = icmp slt i32 %15, 623
  br i1 %17, label %4, label %18, !llvm.loop !76

18:                                               ; preds = %4
  ret void
}